Line  Loc   Code         Source
    1                   ; ---------------------------------------
    2                   ;   Simulation const 
    3                   ; ---------------------------------------
    4                   
    5                   ; .org 0x0000
    6                   ; .db "3 4 +5 6 ++"
    7                   ; test_expr_end:
    8                   ; .org 0xc000
    9                   ; .db 0x00, 0x01
   10                   
   11                   
   12                   ; ---------------------------------------
   13                   ;   Definitions 
   14                   ; ---------------------------------------
   15                   .def (
   16                     ZPAGE := 0x0000
   17                     RST_VTR := 0xfffc
   18                     ENTER   := 0xf000
   19                   
   20                     LCD_CMD_ADDR   := 0x8000 
   21                     LCD_DATA_ADDR  := 0x8001 
   22                   
   23                     LCD_CMD_ENABLE := 0b00001100
   24                     LCD_CMD_RSET_DDRAM := 0x80
   25                     LCD_CMD_CLR_DISPLAY := 0x01
   26                     LCD_CMD_MOVE_CURSOR_LEFT := 0x10
   27                   
   28                     KBR_ADDR := 0xc000
   29                   
   30                     CMD_BS := 0xfe 
   31                     CMD_ENTER := 0xff
   32                   )
   33                   
   34                   ; ---------------------------------------
   35                   ;   Variables 
   36                   ; ---------------------------------------
   37                   .org ZPAGE
   38                   exp_buff: .byte 16 ;100
   39                   
   40                   kbr_key:       .byte 1
   41                   kbr_rd_offset: .byte 1
   42                   exp_buff_ptr: .byte 2
   43                   
   44                   tmp1: .byte 1
   45                   ; ---------------------------------------
   46                   ;   Routine 
   47                   ; ---------------------------------------
   48                   .org ENTER 
   49  f000  200bf0      jsr init_buffer
   50  f003  2014f0      jsr init_lcd
   51                   
   52                   main_loop:
   53  f006  2024f0      jsr handle_keys
   54  f009  80fb      bra main_loop
   55                   
   56                   init_buffer:
   57  f00b  a9ff        ldai (exp_buff - 0x01).l
   58  f00d  8512        sta exp_buff_ptr ; initialize buffer pointer
   59  f00f  a900        ldai 0x00 
   60  f011  8513        sta exp_buff_ptr+1
   61  f013  60        rts 
   62                   
   63                   init_lcd:
   64  f014  a90c        ldai  LCD_CMD_ENABLE     ; enable
   65  f016  8d0080      sta LCD_CMD_ADDR 
   66  f019  a980        ldai LCD_CMD_RSET_DDRAM  ; set DDRAM = 0x00
   67  f01b  8d0080      sta LCD_CMD_ADDR 
   68  f01e  a901        ldai LCD_CMD_CLR_DISPLAY ; clear display
   69  f020  8d0080      sta LCD_CMD_ADDR 
   70  f023  60        rts
   71                   
   72                   handle_keys:
   73  f024  2001f1      jsr read_keys 
   74  f027  f026        beq handle_keys_ret
   75                   check_cmd_key:
   76  f029  a908        ldai 0x08
   77  f02b  38          sec
   78  f02c  e510        sbc kbr_key
   79  f02e  f010        beq handle_back_space
   80                   push_key_on_buffer:
   81  f030  a510        lda kbr_key
   82  f032  2066f0      jsr map_key
   83  f035  e612        inc exp_buff_ptr
   84  f037  9212        sta [exp_buff_ptr]
   85  f039  2050f0      jsr print_to_lcd
   86  f03c  2032f1      jsr delay_kbr
   87  f03f  60          rts
   88                   handle_back_space:
   89  f040  a9ff        ldai 0xff 
   90  f042  38          sec 
   91  f043  e512        sbc exp_buff_ptr
   92  f045  f008        beq handle_keys_ret
   93  f047  c612        dec exp_buff_ptr
   94  f049  2056f0      jsr remove_last_char
   95  f04c  2032f1      jsr delay_kbr
   96                   handle_keys_ret:
   97  f04f  60        rts
   98                   
   99                   print_to_lcd:
  100  f050  b212        lda [exp_buff_ptr]
  101  f052  8d0180      sta LCD_DATA_ADDR
  102  f055  60        rts
  103                   
  104                   remove_last_char:
  105  f056  a910        ldai LCD_CMD_MOVE_CURSOR_LEFT
  106  f058  8d0080      sta LCD_CMD_ADDR 
  107  f05b  a920        ldai 0x20
  108  f05d  8d0180      sta LCD_DATA_ADDR
  109  f060  a910        ldai LCD_CMD_MOVE_CURSOR_LEFT
  110  f062  8d0080      sta LCD_CMD_ADDR 
  111  f065  60        rts 
  112                   
  113                   map_key:
  114  f066  8514        sta tmp1 
  115                   map_key_1:
  116  f068  38          sec
  117  f069  a901        ldai 0b0000_0001
  118  f06b  e514        sbc tmp1 
  119  f06d  d003        bne map_key_2 
  120  f06f  a931        ldai 0b0011_0001 
  121  f071  60          rts
  122                   map_key_2:
  123  f072  38          sec
  124  f073  a911        ldai 0b0001_0001
  125  f075  e514        sbc tmp1 
  126  f077  d003        bne map_key_3 
  127  f079  a932        ldai 0b0011_0010 
  128  f07b  60          rts
  129                   map_key_3:
  130  f07c  38          sec
  131  f07d  a921        ldai 0b0010_0001
  132  f07f  e514        sbc tmp1 
  133  f081  d003        bne map_key_4 
  134  f083  a933        ldai 0b0011_0011 
  135  f085  60          rts
  136                   map_key_4:
  137  f086  38          sec
  138  f087  a902        ldai 0b0000_0010
  139  f089  e514        sbc tmp1 
  140  f08b  d003        bne map_key_5 
  141  f08d  a934        ldai 0b0011_0100 
  142  f08f  60          rts
  143                   map_key_5:
  144  f090  38          sec
  145  f091  a912        ldai 0b0001_0010
  146  f093  e514        sbc tmp1 
  147  f095  d003        bne map_key_6 
  148  f097  a935        ldai 0b0011_0101 
  149  f099  60          rts
  150                   map_key_6:
  151  f09a  38          sec
  152  f09b  a922        ldai 0b0010_0010
  153  f09d  e514        sbc tmp1 
  154  f09f  d003        bne map_key_7 
  155  f0a1  a936        ldai 0b0011_0110 
  156  f0a3  60          rts
  157                   map_key_7:
  158  f0a4  38          sec
  159  f0a5  a904        ldai 0b0000_0100
  160  f0a7  e514        sbc tmp1 
  161  f0a9  d003        bne map_key_8 
  162  f0ab  a937        ldai 0b0011_0111
  163  f0ad  60          rts
  164                   map_key_8:
  165  f0ae  38          sec
  166  f0af  a914        ldai 0b0001_0100
  167  f0b1  e514        sbc tmp1 
  168  f0b3  d003        bne map_key_9 
  169  f0b5  a938        ldai 0b0011_1000 
  170  f0b7  60          rts
  171                   map_key_9:
  172  f0b8  38          sec
  173  f0b9  a924        ldai 0b0010_0100
  174  f0bb  e514        sbc tmp1 
  175  f0bd  d003        bne map_key_0
  176  f0bf  a939        ldai 0b0011_1001 
  177  f0c1  60          rts
  178                   map_key_0:
  179  f0c2  38          sec
  180  f0c3  a918        ldai 0b0001_1000
  181  f0c5  e514        sbc tmp1 
  182  f0c7  d003        bne map_key_add
  183  f0c9  a930        ldai 0b0011_0000
  184  f0cb  60          rts
  185                   map_key_add:
  186  f0cc  38          sec
  187  f0cd  a931        ldai 0b0011_0001
  188  f0cf  e514        sbc tmp1 
  189  f0d1  d003        bne map_key_sub
  190  f0d3  a92b        ldai 0b0010_1011 
  191  f0d5  60          rts
  192                   map_key_sub:
  193  f0d6  38          sec
  194  f0d7  a932        ldai 0b0011_0010
  195  f0d9  e514        sbc tmp1 
  196  f0db  d003        bne map_key_mult
  197  f0dd  a92d        ldai 0b0010_1101 
  198  f0df  60          rts
  199                   map_key_mult:
  200  f0e0  38          sec
  201  f0e1  a934        ldai 0b0011_0100
  202  f0e3  e514        sbc tmp1 
  203  f0e5  d003        bne map_key_div
  204  f0e7  a92a        ldai 0b0010_1010 
  205  f0e9  60          rts
  206                   map_key_div:
  207  f0ea  38          sec
  208  f0eb  a938        ldai 0b0011_1000
  209  f0ed  e514        sbc tmp1 
  210  f0ef  d003        bne map_key_space
  211  f0f1  a92f        ldai 0b0010_1111 
  212  f0f3  60          rts
  213                   map_key_space:
  214  f0f4  38          sec
  215  f0f5  a928        ldai 0b0010_1000
  216  f0f7  e514        sbc tmp1 
  217  f0f9  d003        bne map_key_no_key
  218  f0fb  a920        ldai 0x20
  219  f0fd  60          rts
  220                   map_key_no_key:
  221  f0fe  a900        ldai 0x00
  222  f100  60        rts
  223                   
  224                   read_keys:
  225  f101  6411        stz kbr_rd_offset
  226  f103  201ef1      jsr read_key ;+0
  227                     ; lda kbr_key 
  228  f106  d015        bne read_keys_ret
  229                   
  230  f108  e611        inc kbr_rd_offset 
  231  f10a  201ef1      jsr read_key ;+1
  232                     ; lda kbr_key 
  233  f10d  d00e        bne read_keys_ret
  234                   
  235                   
  236  f10f  e611        inc kbr_rd_offset 
  237  f111  201ef1      jsr read_key ;+2
  238                     ; lda kbr_key 
  239  f114  d007        bne read_keys_ret
  240                   
  241  f116  e611        inc kbr_rd_offset 
  242  f118  201ef1      jsr read_key ;+3
  243                     ; lda kbr_key 
  244  f11b  d000        bne read_keys_ret
  245                   read_keys_ret:
  246  f11d  60        rts 
  247                   
  248                   read_key:
  249  f11e  a611        ldx kbr_rd_offset 
  250  f120  bd00c0      lda KBR_ADDR,x
  251  f123  8510        sta kbr_key 
  252  f125  f00a        beq read_key_ret
  253  f127  18          clc
  254  f128  8a          txa 
  255  f129  2a          rol a 
  256  f12a  2a          rol a
  257  f12b  2a          rol a
  258  f12c  2a          rol a
  259  f12d  0510        ora kbr_key 
  260  f12f  8510        sta kbr_key
  261                   read_key_ret:
  262  f131  60        rts
  263                   
  264                   delay_kbr:
  265  f132  a9ff        ldai 0xff 
  266  f134  8514        sta tmp1
  267                   delay_kbr_loop:
  268  f136  c614        dec tmp1 
  269  f138  d0fc        bne delay_kbr_loop
  270  f13a  60        rts
  271                   
  272                   
  273                   .org RST_VTR
  274  fffc  00f0      .db ENTER.l, ENTER.h
  275                   
  276                   
  277                   
  278                   
